target datalayout = "e-m:e-p270:32:32-p271:32:32-p272:64:64-i64:64-i128:128-f80:128-n8:16:32:64-S128"
target triple = "x86_64-pc-linux-gnu"

%struct.Abc_Ntk_t_ = type { i32, i32, ptr, ptr, ptr, ptr, ptr, ptr, ptr, ptr, ptr, ptr, ptr, [11 x i32], i32, i32, i32, i32, ptr, i32, ptr, ptr, i32, i32, i32, double, i32, %struct.Vec_Int_t_, ptr, ptr, ptr, ptr, ptr, float, i32, ptr, ptr, ptr, ptr, ptr, ptr, ptr, ptr, ptr, ptr, ptr, ptr, ptr, ptr, ptr, ptr, ptr, ptr, ptr, ptr, ptr, ptr }
%struct.Vec_Int_t_ = type { i32, i32, ptr }
%struct.Abc_Obj_t_ = type { ptr, ptr, i32, i32, %struct.Vec_Int_t_, %struct.Vec_Int_t_, %union.anon, %union.anon.0 }
%union.anon = type { ptr }
%union.anon.0 = type { ptr }
%struct.Vec_Ptr_t_ = type { i32, i32, ptr }

; Function Attrs: inlinehint nounwind uwtable
define internal i32 @Abc_ObjIsLatch(ptr noundef %0) #2 {
  %2 = alloca ptr, align 8
  store ptr %0, ptr %2, align 8, !tbaa !32
  %3 = load ptr, ptr %2, align 8, !tbaa !32
  %4 = getelementptr inbounds nuw %struct.Abc_Obj_t_, ptr %3, i32 0, i32 3
  %5 = load i32, ptr %4, align 4
  %6 = and i32 %5, 15
  %7 = icmp eq i32 %6, 8
  %8 = zext i1 %7 to i32
  ret i32 %8
}

; Function Attrs: inlinehint nounwind uwtable
define internal ptr @Abc_ObjFanout(ptr noundef %0, i32 noundef %1) #2 {
  %3 = alloca ptr, align 8
  %4 = alloca i32, align 4
  store ptr %0, ptr %3, align 8, !tbaa !32
  store i32 %1, ptr %4, align 4, !tbaa !8
  %5 = load ptr, ptr %3, align 8, !tbaa !32
  %6 = getelementptr inbounds nuw %struct.Abc_Obj_t_, ptr %5, i32 0, i32 0
  %7 = load ptr, ptr %6, align 8, !tbaa !56
  %8 = getelementptr inbounds nuw %struct.Abc_Ntk_t_, ptr %7, i32 0, i32 5
  %9 = load ptr, ptr %8, align 8, !tbaa !31
  %10 = getelementptr inbounds nuw %struct.Vec_Ptr_t_, ptr %9, i32 0, i32 2
  %11 = load ptr, ptr %10, align 8, !tbaa !58
  %12 = load ptr, ptr %3, align 8, !tbaa !32
  %13 = getelementptr inbounds nuw %struct.Abc_Obj_t_, ptr %12, i32 0, i32 5
  %14 = getelementptr inbounds nuw %struct.Vec_Int_t_, ptr %13, i32 0, i32 2
  %15 = load ptr, ptr %14, align 8, !tbaa !61
  %16 = load i32, ptr %4, align 4, !tbaa !8
  %17 = sext i32 %16 to i64
  %18 = getelementptr inbounds i32, ptr %15, i64 %17
  %19 = load i32, ptr %18, align 4, !tbaa !8
  %20 = sext i32 %19 to i64
  %21 = getelementptr inbounds ptr, ptr %11, i64 %20
  %22 = load ptr, ptr %21, align 8, !tbaa !60
  ret ptr %22
}

; Function Attrs: inlinehint nounwind uwtable
define internal i32 @Abc_ObjFanoutNum(ptr noundef %0) #2 {
  %2 = alloca ptr, align 8
  store ptr %0, ptr %2, align 8, !tbaa !32
  %3 = load ptr, ptr %2, align 8, !tbaa !32
  %4 = getelementptr inbounds nuw %struct.Abc_Obj_t_, ptr %3, i32 0, i32 5
  %5 = getelementptr inbounds nuw %struct.Vec_Int_t_, ptr %4, i32 0, i32 1
  %6 = load i32, ptr %5, align 4, !tbaa !62
  ret i32 %6
}

; Function Attrs: nounwind uwtable
define i32 @Abc_NtkRetimeCheckCompatibleLatchFanouts(ptr noundef %0) #0 {
  %2 = alloca ptr, align 8
  %3 = alloca ptr, align 8
  %4 = alloca i32, align 4
  %5 = alloca i32, align 4
  %6 = alloca i32, align 4
  store ptr %0, ptr %2, align 8, !tbaa !32
  call void @llvm.lifetime.start.p0(i64 8, ptr %3) #7
  call void @llvm.lifetime.start.p0(i64 4, ptr %4) #7
  call void @llvm.lifetime.start.p0(i64 4, ptr %5) #7
  store i32 0, ptr %5, align 4, !tbaa !8
  call void @llvm.lifetime.start.p0(i64 4, ptr %6) #7
  store i32 -1, ptr %6, align 4, !tbaa !8
  store i32 0, ptr %4, align 4, !tbaa !8
  br label %7

7:                                                ; preds = %47, %1
  %8 = load i32, ptr %4, align 4, !tbaa !8
  %9 = load ptr, ptr %2, align 8, !tbaa !32
  %10 = call i32 @Abc_ObjFanoutNum(ptr noundef %9)
  %11 = icmp slt i32 %8, %10
  br i1 %11, label %12, label %16

12:                                               ; preds = %7
  %13 = load ptr, ptr %2, align 8, !tbaa !32
  %14 = load i32, ptr %4, align 4, !tbaa !8
  %15 = call ptr @Abc_ObjFanout(ptr noundef %13, i32 noundef %14)
  store ptr %15, ptr %3, align 8, !tbaa !32
  br label %16

16:                                               ; preds = %12, %7
  %17 = phi i1 [ false, %7 ], [ true, %12 ]
  br i1 %17, label %18, label %50

18:                                               ; preds = %16
  %19 = load ptr, ptr %3, align 8, !tbaa !32
  %20 = call i32 @Abc_ObjIsLatch(ptr noundef %19)
  %21 = icmp ne i32 %20, 0
  br i1 %21, label %23, label %22

22:                                               ; preds = %18
  br label %47

23:                                               ; preds = %18
  %24 = load i32, ptr %6, align 4, !tbaa !8
  %25 = icmp eq i32 %24, -1
  br i1 %25, label %26, label %34

26:                                               ; preds = %23
  %27 = load ptr, ptr %2, align 8, !tbaa !32
  %28 = getelementptr inbounds nuw %struct.Abc_Obj_t_, ptr %27, i32 0, i32 6
  %29 = load ptr, ptr %28, align 8, !tbaa !37
  %30 = ptrtoint ptr %29 to i64
  %31 = trunc i64 %30 to i32
  store i32 %31, ptr %6, align 4, !tbaa !8
  %32 = load i32, ptr %5, align 4, !tbaa !8
  %33 = add nsw i32 %32, 1
  store i32 %33, ptr %5, align 4, !tbaa !8
  br label %46

34:                                               ; preds = %23
  %35 = load i32, ptr %6, align 4, !tbaa !8
  %36 = load ptr, ptr %2, align 8, !tbaa !32
  %37 = getelementptr inbounds nuw %struct.Abc_Obj_t_, ptr %36, i32 0, i32 6
  %38 = load ptr, ptr %37, align 8, !tbaa !37
  %39 = ptrtoint ptr %38 to i64
  %40 = trunc i64 %39 to i32
  %41 = icmp eq i32 %35, %40
  br i1 %41, label %42, label %45

42:                                               ; preds = %34
  %43 = load i32, ptr %5, align 4, !tbaa !8
  %44 = add nsw i32 %43, 1
  store i32 %44, ptr %5, align 4, !tbaa !8
  br label %45

45:                                               ; preds = %42, %34
  br label %46

46:                                               ; preds = %45, %26
  br label %47

47:                                               ; preds = %46, %22
  %48 = load i32, ptr %4, align 4, !tbaa !8
  %49 = add nsw i32 %48, 1
  store i32 %49, ptr %4, align 4, !tbaa !8
  br label %7, !llvm.loop !72

50:                                               ; preds = %16
  %51 = load i32, ptr %5, align 4, !tbaa !8
  call void @llvm.lifetime.end.p0(i64 4, ptr %6) #7
  call void @llvm.lifetime.end.p0(i64 4, ptr %5) #7
  call void @llvm.lifetime.end.p0(i64 4, ptr %4) #7
  call void @llvm.lifetime.end.p0(i64 8, ptr %3) #7
  ret i32 %51
}