; Function Attrs: nofree norecurse nosync nounwind memory(read, inaccessiblemem: none) uwtable
define i32 @Abc_NtkRetimeCheckCompatibleLatchFanouts(ptr noundef readonly captures(none) %0) local_unnamed_addr #4 {
  %2 = getelementptr i8, ptr %0, i64 44
  %.val15 = load i32, ptr %2, align 4, !tbaa !30
  %3 = icmp sgt i32 %.val15, 0
  br i1 %3, label %.lr.ph, label %.critedge

.lr.ph:                                           ; preds = %1
  %.val16 = load ptr, ptr %0, align 8, !tbaa !33
  %4 = getelementptr i8, ptr %0, i64 48
  %.val17 = load ptr, ptr %4, align 8, !tbaa !34
  %5 = getelementptr i8, ptr %.val16, i64 32
  %.val16.val = load ptr, ptr %5, align 8, !tbaa !7
  %6 = getelementptr i8, ptr %.val16.val, i64 8
  %.val16.val.val = load ptr, ptr %6, align 8, !tbaa !28
  %7 = getelementptr inbounds nuw i8, ptr %0, i64 56
  %wide.trip.count = zext nneg i32 %.val15 to i64
  br label %8

8:                                                ; preds = %.lr.ph, %26
  %indvars.iv = phi i64 [ 0, %.lr.ph ], [ %indvars.iv.next, %26 ]
  %.020 = phi i32 [ -1, %.lr.ph ], [ %.1, %26 ]
  %.01219 = phi i32 [ 0, %.lr.ph ], [ %.113, %26 ]
  %9 = getelementptr inbounds nuw i32, ptr %.val17, i64 %indvars.iv
  %10 = load i32, ptr %9, align 4, !tbaa !3
  %11 = sext i32 %10 to i64
  %12 = getelementptr inbounds ptr, ptr %.val16.val.val, i64 %11
  %13 = load ptr, ptr %12, align 8, !tbaa !29
  %14 = getelementptr i8, ptr %13, i64 20
  %.val = load i32, ptr %14, align 4
  %15 = and i32 %.val, 15
  %.not = icmp eq i32 %15, 8
  br i1 %.not, label %16, label %26

16:                                               ; preds = %8
  %17 = icmp eq i32 %.020, -1
  %18 = load ptr, ptr %7, align 8, !tbaa !48
  %19 = ptrtoint ptr %18 to i64
  %20 = trunc i64 %19 to i32
  br i1 %17, label %21, label %23

21:                                               ; preds = %16
  %22 = add nsw i32 %.01219, 1
  br label %26

23:                                               ; preds = %16
  %24 = icmp eq i32 %.020, %20
  %25 = zext i1 %24 to i32
  %spec.select = add nsw i32 %.01219, %25
  br label %26

26:                                               ; preds = %23, %21, %8
  %.113 = phi i32 [ %22, %21 ], [ %.01219, %8 ], [ %spec.select, %23 ]
  %.1 = phi i32 [ %20, %21 ], [ %.020, %8 ], [ %.020, %23 ]
  %indvars.iv.next = add nuw nsw i64 %indvars.iv, 1
  %exitcond.not = icmp eq i64 %indvars.iv.next, %wide.trip.count
  br i1 %exitcond.not, label %.critedge, label %8, !llvm.loop !49

.critedge:                                        ; preds = %26, %1
  %.012.lcssa = phi i32 [ 0, %1 ], [ %.113, %26 ]
  ret i32 %.012.lcssa
}